; Function Attrs: null_pointer_is_valid sspstrong uwtable
define internal i32 @dissect_xnap_T_rrc_Context_01(ptr noundef %0, i32 noundef %1, ptr noundef %2, ptr noundef %3, i32 noundef %4) #0 {
  %6 = alloca ptr, align 8
  call void @llvm.lifetime.start.p0(i64 8, ptr nonnull %6) #9
  store ptr null, ptr %6, align 8
  %7 = call i32 @dissect_per_octet_string(ptr noundef %0, i32 noundef %1, ptr noundef %2, ptr noundef %3, i32 noundef %4, i32 noundef -1, i32 noundef -1, i1 noundef zeroext false, ptr noundef nonnull %6)
  %8 = load ptr, ptr %6, align 8
  %.not = icmp eq ptr %8, null
  br i1 %.not, label %40, label %9

9:                                                ; preds = %5
  %10 = getelementptr inbounds nuw i8, ptr %2, i64 16
  %11 = load ptr, ptr %10, align 8
  %12 = getelementptr inbounds nuw i8, ptr %11, i64 232
  %13 = getelementptr inbounds nuw i8, ptr %11, i64 288
  %14 = load i32, ptr %13, align 8
  %15 = call fastcc i32 @xnap_get_ranmode_id(ptr noundef nonnull %12, i32 noundef %14, ptr noundef %11)
  %16 = getelementptr inbounds nuw i8, ptr %2, i64 24
  %17 = load ptr, ptr %16, align 8
  %18 = load i32, ptr @ett_xnap_RRC_Context, align 4
  %19 = call ptr @proto_item_add_subtree(ptr noundef %17, i32 noundef %18)
  %20 = load i32, ptr @xnap_dissect_target_ng_ran_container_as, align 4
  %21 = icmp eq i32 %20, 0
  %22 = icmp eq i32 %15, 0
  %or.cond = select i1 %21, i1 %22, i1 false
  %23 = icmp eq i32 %20, 1
  %or.cond3 = or i1 %23, %or.cond
  br i1 %or.cond3, label %24, label %28

24:                                               ; preds = %9
  %25 = load ptr, ptr %6, align 8
  %26 = load ptr, ptr %10, align 8
  %27 = call i32 @dissect_nr_rrc_HandoverPreparationInformation_PDU(ptr noundef %25, ptr noundef %26, ptr noundef %19, ptr noundef null)
  br label %40

28:                                               ; preds = %9
  %29 = icmp eq i32 %15, 1
  %or.cond5 = select i1 %21, i1 %29, i1 false
  %30 = icmp eq i32 %20, 2
  %or.cond7 = or i1 %30, %or.cond5
  br i1 %or.cond7, label %31, label %40

31:                                               ; preds = %28
  %32 = load i32, ptr @xnap_dissect_lte_rrc_context_as, align 4
  %33 = icmp eq i32 %32, 1
  %34 = load ptr, ptr %6, align 8
  %35 = load ptr, ptr %10, align 8
  br i1 %33, label %36, label %38

36:                                               ; preds = %31
  %37 = call i32 @dissect_lte_rrc_HandoverPreparationInformation_NB_PDU(ptr noundef %34, ptr noundef %35, ptr noundef %19, ptr noundef null)
  br label %40

38:                                               ; preds = %31
  %39 = call i32 @dissect_lte_rrc_HandoverPreparationInformation_PDU(ptr noundef %34, ptr noundef %35, ptr noundef %19, ptr noundef null)
  br label %40

40:                                               ; preds = %24, %36, %38, %28, %5
  call void @llvm.lifetime.end.p0(i64 8, ptr nonnull %6) #9
  ret i32 %7
}